; ModuleID = '48/329.c'
source_filename = "48/329.c"
target datalayout = "e-m:e-p270:32:32-p271:32:32-p272:64:64-i64:64-f80:128-n8:16:32:64-S128"
target triple = "x86_64-pc-linux-gnu"

@.str = private unnamed_addr constant [5 x i8] c"%d%d\00", align 1
@.str.1 = private unnamed_addr constant [4 x i8] c"%d \00", align 1
@.str.2 = private unnamed_addr constant [4 x i8] c"%d\0A\00", align 1

; Function Attrs: noinline nounwind uwtable
define dso_local i32 @main() #0 {
  %1 = alloca i32, align 4
  %2 = alloca [5 x [9 x [9 x i32]]], align 16
  %3 = alloca i32, align 4
  %4 = alloca i32, align 4
  %5 = alloca i32, align 4
  %6 = alloca i32, align 4
  %7 = alloca i32, align 4
  %8 = alloca i32, align 4
  store i32 0, i32* %1, align 4
  %9 = call i32 (i8*, ...) @__isoc99_scanf(i8* getelementptr inbounds ([5 x i8], [5 x i8]* @.str, i64 0, i64 0), i32* %7, i32* %8)
  store i32 0, i32* %3, align 4
  br label %10

10:                                               ; preds = %40, %0
  %11 = load i32, i32* %3, align 4
  %12 = load i32, i32* %8, align 4
  %13 = icmp sle i32 %11, %12
  br i1 %13, label %14, label %43

14:                                               ; preds = %10
  store i32 0, i32* %4, align 4
  br label %15

15:                                               ; preds = %36, %14
  %16 = load i32, i32* %4, align 4
  %17 = icmp slt i32 %16, 9
  br i1 %17, label %18, label %39

18:                                               ; preds = %15
  store i32 0, i32* %5, align 4
  br label %19

19:                                               ; preds = %32, %18
  %20 = load i32, i32* %5, align 4
  %21 = icmp slt i32 %20, 9
  br i1 %21, label %22, label %35

22:                                               ; preds = %19
  %23 = load i32, i32* %3, align 4
  %24 = sext i32 %23 to i64
  %25 = getelementptr inbounds [5 x [9 x [9 x i32]]], [5 x [9 x [9 x i32]]]* %2, i64 0, i64 %24
  %26 = load i32, i32* %4, align 4
  %27 = sext i32 %26 to i64
  %28 = getelementptr inbounds [9 x [9 x i32]], [9 x [9 x i32]]* %25, i64 0, i64 %27
  %29 = load i32, i32* %5, align 4
  %30 = sext i32 %29 to i64
  %31 = getelementptr inbounds [9 x i32], [9 x i32]* %28, i64 0, i64 %30
  store i32 0, i32* %31, align 4
  br label %32

32:                                               ; preds = %22
  %33 = load i32, i32* %5, align 4
  %34 = add nsw i32 %33, 1
  store i32 %34, i32* %5, align 4
  br label %19

35:                                               ; preds = %19
  br label %36

36:                                               ; preds = %35
  %37 = load i32, i32* %4, align 4
  %38 = add nsw i32 %37, 1
  store i32 %38, i32* %4, align 4
  br label %15

39:                                               ; preds = %15
  br label %40

40:                                               ; preds = %39
  %41 = load i32, i32* %3, align 4
  %42 = add nsw i32 %41, 1
  store i32 %42, i32* %3, align 4
  br label %10

43:                                               ; preds = %10
  %44 = load i32, i32* %7, align 4
  %45 = getelementptr inbounds [5 x [9 x [9 x i32]]], [5 x [9 x [9 x i32]]]* %2, i64 0, i64 0
  %46 = getelementptr inbounds [9 x [9 x i32]], [9 x [9 x i32]]* %45, i64 0, i64 4
  %47 = getelementptr inbounds [9 x i32], [9 x i32]* %46, i64 0, i64 4
  store i32 %44, i32* %47, align 16
  store i32 0, i32* %3, align 4
  br label %48

48:                                               ; preds = %217, %43
  %49 = load i32, i32* %3, align 4
  %50 = load i32, i32* %8, align 4
  %51 = icmp slt i32 %49, %50
  br i1 %51, label %52, label %220

52:                                               ; preds = %48
  %53 = load i32, i32* %3, align 4
  %54 = sub nsw i32 4, %53
  store i32 %54, i32* %4, align 4
  br label %55

55:                                               ; preds = %213, %52
  %56 = load i32, i32* %4, align 4
  %57 = load i32, i32* %3, align 4
  %58 = add nsw i32 4, %57
  %59 = icmp sle i32 %56, %58
  br i1 %59, label %60, label %216

60:                                               ; preds = %55
  %61 = load i32, i32* %3, align 4
  %62 = sub nsw i32 4, %61
  store i32 %62, i32* %5, align 4
  br label %63

63:                                               ; preds = %209, %60
  %64 = load i32, i32* %5, align 4
  %65 = load i32, i32* %3, align 4
  %66 = add nsw i32 4, %65
  %67 = icmp sle i32 %64, %66
  br i1 %67, label %68, label %212

68:                                               ; preds = %63
  %69 = load i32, i32* %3, align 4
  %70 = sext i32 %69 to i64
  %71 = getelementptr inbounds [5 x [9 x [9 x i32]]], [5 x [9 x [9 x i32]]]* %2, i64 0, i64 %70
  %72 = load i32, i32* %4, align 4
  %73 = sext i32 %72 to i64
  %74 = getelementptr inbounds [9 x [9 x i32]], [9 x [9 x i32]]* %71, i64 0, i64 %73
  %75 = load i32, i32* %5, align 4
  %76 = sext i32 %75 to i64
  %77 = getelementptr inbounds [9 x i32], [9 x i32]* %74, i64 0, i64 %76
  %78 = load i32, i32* %77, align 4
  store i32 %78, i32* %6, align 4
  %79 = load i32, i32* %6, align 4
  %80 = load i32, i32* %3, align 4
  %81 = add nsw i32 %80, 1
  %82 = sext i32 %81 to i64
  %83 = getelementptr inbounds [5 x [9 x [9 x i32]]], [5 x [9 x [9 x i32]]]* %2, i64 0, i64 %82
  %84 = load i32, i32* %4, align 4
  %85 = sub nsw i32 %84, 1
  %86 = sext i32 %85 to i64
  %87 = getelementptr inbounds [9 x [9 x i32]], [9 x [9 x i32]]* %83, i64 0, i64 %86
  %88 = load i32, i32* %5, align 4
  %89 = sub nsw i32 %88, 1
  %90 = sext i32 %89 to i64
  %91 = getelementptr inbounds [9 x i32], [9 x i32]* %87, i64 0, i64 %90
  %92 = load i32, i32* %91, align 4
  %93 = add nsw i32 %92, %79
  store i32 %93, i32* %91, align 4
  %94 = load i32, i32* %6, align 4
  %95 = load i32, i32* %3, align 4
  %96 = add nsw i32 %95, 1
  %97 = sext i32 %96 to i64
  %98 = getelementptr inbounds [5 x [9 x [9 x i32]]], [5 x [9 x [9 x i32]]]* %2, i64 0, i64 %97
  %99 = load i32, i32* %4, align 4
  %100 = sub nsw i32 %99, 1
  %101 = sext i32 %100 to i64
  %102 = getelementptr inbounds [9 x [9 x i32]], [9 x [9 x i32]]* %98, i64 0, i64 %101
  %103 = load i32, i32* %5, align 4
  %104 = sext i32 %103 to i64
  %105 = getelementptr inbounds [9 x i32], [9 x i32]* %102, i64 0, i64 %104
  %106 = load i32, i32* %105, align 4
  %107 = add nsw i32 %106, %94
  store i32 %107, i32* %105, align 4
  %108 = load i32, i32* %6, align 4
  %109 = load i32, i32* %3, align 4
  %110 = add nsw i32 %109, 1
  %111 = sext i32 %110 to i64
  %112 = getelementptr inbounds [5 x [9 x [9 x i32]]], [5 x [9 x [9 x i32]]]* %2, i64 0, i64 %111
  %113 = load i32, i32* %4, align 4
  %114 = sub nsw i32 %113, 1
  %115 = sext i32 %114 to i64
  %116 = getelementptr inbounds [9 x [9 x i32]], [9 x [9 x i32]]* %112, i64 0, i64 %115
  %117 = load i32, i32* %5, align 4
  %118 = add nsw i32 %117, 1
  %119 = sext i32 %118 to i64
  %120 = getelementptr inbounds [9 x i32], [9 x i32]* %116, i64 0, i64 %119
  %121 = load i32, i32* %120, align 4
  %122 = add nsw i32 %121, %108
  store i32 %122, i32* %120, align 4
  %123 = load i32, i32* %6, align 4
  %124 = load i32, i32* %3, align 4
  %125 = add nsw i32 %124, 1
  %126 = sext i32 %125 to i64
  %127 = getelementptr inbounds [5 x [9 x [9 x i32]]], [5 x [9 x [9 x i32]]]* %2, i64 0, i64 %126
  %128 = load i32, i32* %4, align 4
  %129 = sext i32 %128 to i64
  %130 = getelementptr inbounds [9 x [9 x i32]], [9 x [9 x i32]]* %127, i64 0, i64 %129
  %131 = load i32, i32* %5, align 4
  %132 = sub nsw i32 %131, 1
  %133 = sext i32 %132 to i64
  %134 = getelementptr inbounds [9 x i32], [9 x i32]* %130, i64 0, i64 %133
  %135 = load i32, i32* %134, align 4
  %136 = add nsw i32 %135, %123
  store i32 %136, i32* %134, align 4
  %137 = load i32, i32* %6, align 4
  %138 = mul nsw i32 2, %137
  %139 = load i32, i32* %3, align 4
  %140 = add nsw i32 %139, 1
  %141 = sext i32 %140 to i64
  %142 = getelementptr inbounds [5 x [9 x [9 x i32]]], [5 x [9 x [9 x i32]]]* %2, i64 0, i64 %141
  %143 = load i32, i32* %4, align 4
  %144 = sext i32 %143 to i64
  %145 = getelementptr inbounds [9 x [9 x i32]], [9 x [9 x i32]]* %142, i64 0, i64 %144
  %146 = load i32, i32* %5, align 4
  %147 = sext i32 %146 to i64
  %148 = getelementptr inbounds [9 x i32], [9 x i32]* %145, i64 0, i64 %147
  %149 = load i32, i32* %148, align 4
  %150 = add nsw i32 %149, %138
  store i32 %150, i32* %148, align 4
  %151 = load i32, i32* %6, align 4
  %152 = load i32, i32* %3, align 4
  %153 = add nsw i32 %152, 1
  %154 = sext i32 %153 to i64
  %155 = getelementptr inbounds [5 x [9 x [9 x i32]]], [5 x [9 x [9 x i32]]]* %2, i64 0, i64 %154
  %156 = load i32, i32* %4, align 4
  %157 = sext i32 %156 to i64
  %158 = getelementptr inbounds [9 x [9 x i32]], [9 x [9 x i32]]* %155, i64 0, i64 %157
  %159 = load i32, i32* %5, align 4
  %160 = add nsw i32 %159, 1
  %161 = sext i32 %160 to i64
  %162 = getelementptr inbounds [9 x i32], [9 x i32]* %158, i64 0, i64 %161
  %163 = load i32, i32* %162, align 4
  %164 = add nsw i32 %163, %151
  store i32 %164, i32* %162, align 4
  %165 = load i32, i32* %6, align 4
  %166 = load i32, i32* %3, align 4
  %167 = add nsw i32 %166, 1
  %168 = sext i32 %167 to i64
  %169 = getelementptr inbounds [5 x [9 x [9 x i32]]], [5 x [9 x [9 x i32]]]* %2, i64 0, i64 %168
  %170 = load i32, i32* %4, align 4
  %171 = add nsw i32 %170, 1
  %172 = sext i32 %171 to i64
  %173 = getelementptr inbounds [9 x [9 x i32]], [9 x [9 x i32]]* %169, i64 0, i64 %172
  %174 = load i32, i32* %5, align 4
  %175 = sub nsw i32 %174, 1
  %176 = sext i32 %175 to i64
  %177 = getelementptr inbounds [9 x i32], [9 x i32]* %173, i64 0, i64 %176
  %178 = load i32, i32* %177, align 4
  %179 = add nsw i32 %178, %165
  store i32 %179, i32* %177, align 4
  %180 = load i32, i32* %6, align 4
  %181 = load i32, i32* %3, align 4
  %182 = add nsw i32 %181, 1
  %183 = sext i32 %182 to i64
  %184 = getelementptr inbounds [5 x [9 x [9 x i32]]], [5 x [9 x [9 x i32]]]* %2, i64 0, i64 %183
  %185 = load i32, i32* %4, align 4
  %186 = add nsw i32 %185, 1
  %187 = sext i32 %186 to i64
  %188 = getelementptr inbounds [9 x [9 x i32]], [9 x [9 x i32]]* %184, i64 0, i64 %187
  %189 = load i32, i32* %5, align 4
  %190 = sext i32 %189 to i64
  %191 = getelementptr inbounds [9 x i32], [9 x i32]* %188, i64 0, i64 %190
  %192 = load i32, i32* %191, align 4
  %193 = add nsw i32 %192, %180
  store i32 %193, i32* %191, align 4
  %194 = load i32, i32* %6, align 4
  %195 = load i32, i32* %3, align 4
  %196 = add nsw i32 %195, 1
  %197 = sext i32 %196 to i64
  %198 = getelementptr inbounds [5 x [9 x [9 x i32]]], [5 x [9 x [9 x i32]]]* %2, i64 0, i64 %197
  %199 = load i32, i32* %4, align 4
  %200 = add nsw i32 %199, 1
  %201 = sext i32 %200 to i64
  %202 = getelementptr inbounds [9 x [9 x i32]], [9 x [9 x i32]]* %198, i64 0, i64 %201
  %203 = load i32, i32* %5, align 4
  %204 = add nsw i32 %203, 1
  %205 = sext i32 %204 to i64
  %206 = getelementptr inbounds [9 x i32], [9 x i32]* %202, i64 0, i64 %205
  %207 = load i32, i32* %206, align 4
  %208 = add nsw i32 %207, %194
  store i32 %208, i32* %206, align 4
  br label %209

209:                                              ; preds = %68
  %210 = load i32, i32* %5, align 4
  %211 = add nsw i32 %210, 1
  store i32 %211, i32* %5, align 4
  br label %63

212:                                              ; preds = %63
  br label %213

213:                                              ; preds = %212
  %214 = load i32, i32* %4, align 4
  %215 = add nsw i32 %214, 1
  store i32 %215, i32* %4, align 4
  br label %55

216:                                              ; preds = %55
  br label %217

217:                                              ; preds = %216
  %218 = load i32, i32* %3, align 4
  %219 = add nsw i32 %218, 1
  store i32 %219, i32* %3, align 4
  br label %48

220:                                              ; preds = %48
  store i32 0, i32* %3, align 4
  br label %221

221:                                              ; preds = %253, %220
  %222 = load i32, i32* %3, align 4
  %223 = icmp slt i32 %222, 9
  br i1 %223, label %224, label %256

224:                                              ; preds = %221
  store i32 0, i32* %4, align 4
  br label %225

225:                                              ; preds = %240, %224
  %226 = load i32, i32* %4, align 4
  %227 = icmp slt i32 %226, 8
  br i1 %227, label %228, label %243

228:                                              ; preds = %225
  %229 = load i32, i32* %8, align 4
  %230 = sext i32 %229 to i64
  %231 = getelementptr inbounds [5 x [9 x [9 x i32]]], [5 x [9 x [9 x i32]]]* %2, i64 0, i64 %230
  %232 = load i32, i32* %3, align 4
  %233 = sext i32 %232 to i64
  %234 = getelementptr inbounds [9 x [9 x i32]], [9 x [9 x i32]]* %231, i64 0, i64 %233
  %235 = load i32, i32* %4, align 4
  %236 = sext i32 %235 to i64
  %237 = getelementptr inbounds [9 x i32], [9 x i32]* %234, i64 0, i64 %236
  %238 = load i32, i32* %237, align 4
  %239 = call i32 (i8*, ...) @printf(i8* getelementptr inbounds ([4 x i8], [4 x i8]* @.str.1, i64 0, i64 0), i32 %238)
  br label %240

240:                                              ; preds = %228
  %241 = load i32, i32* %4, align 4
  %242 = add nsw i32 %241, 1
  store i32 %242, i32* %4, align 4
  br label %225

243:                                              ; preds = %225
  %244 = load i32, i32* %8, align 4
  %245 = sext i32 %244 to i64
  %246 = getelementptr inbounds [5 x [9 x [9 x i32]]], [5 x [9 x [9 x i32]]]* %2, i64 0, i64 %245
  %247 = load i32, i32* %3, align 4
  %248 = sext i32 %247 to i64
  %249 = getelementptr inbounds [9 x [9 x i32]], [9 x [9 x i32]]* %246, i64 0, i64 %248
  %250 = getelementptr inbounds [9 x i32], [9 x i32]* %249, i64 0, i64 8
  %251 = load i32, i32* %250, align 4
  %252 = call i32 (i8*, ...) @printf(i8* getelementptr inbounds ([4 x i8], [4 x i8]* @.str.2, i64 0, i64 0), i32 %251)
  br label %253

253:                                              ; preds = %243
  %254 = load i32, i32* %3, align 4
  %255 = add nsw i32 %254, 1
  store i32 %255, i32* %3, align 4
  br label %221

256:                                              ; preds = %221
  ret i32 0
}

declare dso_local i32 @__isoc99_scanf(i8*, ...) #1

declare dso_local i32 @printf(i8*, ...) #1


!llvm.module.flags = !{!0}
!llvm.ident = !{!1}

!0 = !{i32 1, !"wchar_size", i32 4}
!1 = !{!"clang version 10.0.0-4ubuntu1 "}
